target datalayout = "e-m:e-p270:32:32-p271:32:32-p272:64:64-i64:64-i128:128-f80:128-n8:16:32:64-S128"
target triple = "x86_64-unknown-linux-gnu"

%"struct.node::inspector::protocol::Status" = type { i32, i64 }
%"class.node::inspector::protocol::StreamingParserHandler" = type { ptr }
%"class.std::stack" = type { %"class.std::deque" }
%"class.std::deque" = type { %"class.std::_Deque_base" }
%"class.std::_Deque_base" = type { %"struct.std::_Deque_base<node::inspector::protocol::json::(anonymous namespace)::State, std::allocator<node::inspector::protocol::json::(anonymous namespace)::State>>::_Deque_impl" }
%"struct.std::_Deque_base<node::inspector::protocol::json::(anonymous namespace)::State, std::allocator<node::inspector::protocol::json::(anonymous namespace)::State>>::_Deque_impl" = type { %"struct.std::_Deque_base<node::inspector::protocol::json::(anonymous namespace)::State, std::allocator<node::inspector::protocol::json::(anonymous namespace)::State>>::_Deque_impl_data" }
%"struct.std::_Deque_base<node::inspector::protocol::json::(anonymous namespace)::State, std::allocator<node::inspector::protocol::json::(anonymous namespace)::State>>::_Deque_impl_data" = type { ptr, i64, %"struct.std::_Deque_iterator", %"struct.std::_Deque_iterator" }
%"struct.std::_Deque_iterator" = type { ptr, ptr, ptr, ptr }
%"class.node::inspector::protocol::json::(anonymous namespace)::JSONEncoder.193" = type { %"class.node::inspector::protocol::StreamingParserHandler", ptr, ptr, ptr, %"class.std::stack" }
%"class.node::inspector::protocol::json::(anonymous namespace)::State" = type { i32, i32 }

; Function Attrs: mustprogress nounwind uwtable
define internal void @_ZNSt15__new_allocatorIN4node9inspector8protocol4json12_GLOBAL__N_15StateEE10deallocateEPS5_m(ptr noundef nonnull align 1 dereferenceable(1) %this, ptr noundef %__p, i64 noundef %__n) #0 align 2 {
entry:
  %this.addr = alloca ptr, align 8
  %__p.addr = alloca ptr, align 8
  %__n.addr = alloca i64, align 8
  store ptr %this, ptr %this.addr, align 8
  store ptr %__p, ptr %__p.addr, align 8
  store i64 %__n, ptr %__n.addr, align 8
  %0 = load ptr, ptr %__p.addr, align 8
  call void @_ZdlPv(ptr noundef %0) #18
  ret void
}

; Function Attrs: mustprogress nounwind uwtable
define internal noundef i64 @_ZNSt15_Deque_iteratorIN4node9inspector8protocol4json12_GLOBAL__N_15StateERS5_PS5_E14_S_buffer_sizeEv() #0 align 2 {
entry:
  %call = call noundef i64 @_ZSt16__deque_buf_sizem(i64 noundef 8)
  ret i64 %call
}

; Function Attrs: mustprogress nounwind uwtable
define internal void @_ZNSt16allocator_traitsISaIN4node9inspector8protocol4json12_GLOBAL__N_15StateEEE10deallocateERS6_PS5_m(ptr noundef nonnull align 1 dereferenceable(1) %__a, ptr noundef %__p, i64 noundef %__n) #0 align 2 {
entry:
  %__a.addr = alloca ptr, align 8
  %__p.addr = alloca ptr, align 8
  %__n.addr = alloca i64, align 8
  store ptr %__a, ptr %__a.addr, align 8
  store ptr %__p, ptr %__p.addr, align 8
  store i64 %__n, ptr %__n.addr, align 8
  %0 = load ptr, ptr %__a.addr, align 8
  %1 = load ptr, ptr %__p.addr, align 8
  %2 = load i64, ptr %__n.addr, align 8
  call void @_ZNSt15__new_allocatorIN4node9inspector8protocol4json12_GLOBAL__N_15StateEE10deallocateEPS5_m(ptr noundef nonnull align 1 dereferenceable(1) %0, ptr noundef %1, i64 noundef %2)
  ret void
}

; Function Attrs: mustprogress nounwind uwtable
define linkonce_odr dso_local noundef i64 @_ZSt16__deque_buf_sizem(i64 noundef %__size) #0 comdat {
entry:
  %__size.addr = alloca i64, align 8
  store i64 %__size, ptr %__size.addr, align 8
  %0 = load i64, ptr %__size.addr, align 8
  %cmp = icmp ult i64 %0, 512
  br i1 %cmp, label %cond.true, label %cond.false

cond.true:                                        ; preds = %entry
  %1 = load i64, ptr %__size.addr, align 8
  %div = udiv i64 512, %1
  br label %cond.end

cond.false:                                       ; preds = %entry
  br label %cond.end

cond.end:                                         ; preds = %cond.false, %cond.true
  %cond = phi i64 [ %div, %cond.true ], [ 1, %cond.false ]
  ret i64 %cond
}

; Function Attrs: mustprogress nounwind uwtable
define internal void @_ZNSt15_Deque_iteratorIN4node9inspector8protocol4json12_GLOBAL__N_15StateERS5_PS5_E11_M_set_nodeEPS7_(ptr noundef nonnull align 8 dereferenceable(32) %this, ptr noundef %__new_node) #0 align 2 {
entry:
  %this.addr = alloca ptr, align 8
  %__new_node.addr = alloca ptr, align 8
  store ptr %this, ptr %this.addr, align 8
  store ptr %__new_node, ptr %__new_node.addr, align 8
  %this1 = load ptr, ptr %this.addr, align 8
  %0 = load ptr, ptr %__new_node.addr, align 8
  %_M_node = getelementptr inbounds %"struct.std::_Deque_iterator", ptr %this1, i32 0, i32 3
  store ptr %0, ptr %_M_node, align 8
  %1 = load ptr, ptr %__new_node.addr, align 8
  %2 = load ptr, ptr %1, align 8
  %_M_first = getelementptr inbounds %"struct.std::_Deque_iterator", ptr %this1, i32 0, i32 1
  store ptr %2, ptr %_M_first, align 8
  %_M_first2 = getelementptr inbounds %"struct.std::_Deque_iterator", ptr %this1, i32 0, i32 1
  %3 = load ptr, ptr %_M_first2, align 8
  %call = call noundef i64 @_ZNSt15_Deque_iteratorIN4node9inspector8protocol4json12_GLOBAL__N_15StateERS5_PS5_E14_S_buffer_sizeEv() #13
  %add.ptr = getelementptr inbounds %"class.node::inspector::protocol::json::(anonymous namespace)::State", ptr %3, i64 %call
  %_M_last = getelementptr inbounds %"struct.std::_Deque_iterator", ptr %this1, i32 0, i32 2
  store ptr %add.ptr, ptr %_M_last, align 8
  ret void
}

; Function Attrs: mustprogress nounwind uwtable
define internal void @_ZNSt11_Deque_baseIN4node9inspector8protocol4json12_GLOBAL__N_15StateESaIS5_EE18_M_deallocate_nodeEPS5_(ptr noundef nonnull align 8 dereferenceable(80) %this, ptr noundef %__p) #0 align 2 {
entry:
  %this.addr = alloca ptr, align 8
  %__p.addr = alloca ptr, align 8
  store ptr %this, ptr %this.addr, align 8
  store ptr %__p, ptr %__p.addr, align 8
  %this1 = load ptr, ptr %this.addr, align 8
  %_M_impl = getelementptr inbounds %"class.std::_Deque_base", ptr %this1, i32 0, i32 0
  %0 = load ptr, ptr %__p.addr, align 8
  %call = call noundef i64 @_ZSt16__deque_buf_sizem(i64 noundef 8)
  call void @_ZNSt16allocator_traitsISaIN4node9inspector8protocol4json12_GLOBAL__N_15StateEEE10deallocateERS6_PS5_m(ptr noundef nonnull align 1 dereferenceable(1) %_M_impl, ptr noundef %0, i64 noundef %call)
  ret void
}

; Function Attrs: mustprogress nounwind uwtable
define internal void @_ZNSt15__new_allocatorIN4node9inspector8protocol4json12_GLOBAL__N_15StateEE7destroyIS5_EEvPT_(ptr noundef nonnull align 1 dereferenceable(1) %this, ptr noundef %__p) #0 align 2 {
entry:
  %this.addr = alloca ptr, align 8
  %__p.addr = alloca ptr, align 8
  store ptr %this, ptr %this.addr, align 8
  store ptr %__p, ptr %__p.addr, align 8
  ret void
}

; Function Attrs: mustprogress nounwind uwtable
define internal void @_ZNSt5dequeIN4node9inspector8protocol4json12_GLOBAL__N_15StateESaIS5_EE15_M_pop_back_auxEv(ptr noundef nonnull align 8 dereferenceable(80) %this) #0 align 2 {
entry:
  %this.addr = alloca ptr, align 8
  store ptr %this, ptr %this.addr, align 8
  %this1 = load ptr, ptr %this.addr, align 8
  %_M_impl = getelementptr inbounds %"class.std::_Deque_base", ptr %this1, i32 0, i32 0
  %_M_finish = getelementptr inbounds %"struct.std::_Deque_base<node::inspector::protocol::json::(anonymous namespace)::State, std::allocator<node::inspector::protocol::json::(anonymous namespace)::State>>::_Deque_impl_data", ptr %_M_impl, i32 0, i32 3
  %_M_first = getelementptr inbounds %"struct.std::_Deque_iterator", ptr %_M_finish, i32 0, i32 1
  %0 = load ptr, ptr %_M_first, align 8
  call void @_ZNSt11_Deque_baseIN4node9inspector8protocol4json12_GLOBAL__N_15StateESaIS5_EE18_M_deallocate_nodeEPS5_(ptr noundef nonnull align 8 dereferenceable(80) %this1, ptr noundef %0) #13
  %_M_impl2 = getelementptr inbounds %"class.std::_Deque_base", ptr %this1, i32 0, i32 0
  %_M_finish3 = getelementptr inbounds %"struct.std::_Deque_base<node::inspector::protocol::json::(anonymous namespace)::State, std::allocator<node::inspector::protocol::json::(anonymous namespace)::State>>::_Deque_impl_data", ptr %_M_impl2, i32 0, i32 3
  %_M_impl4 = getelementptr inbounds %"class.std::_Deque_base", ptr %this1, i32 0, i32 0
  %_M_finish5 = getelementptr inbounds %"struct.std::_Deque_base<node::inspector::protocol::json::(anonymous namespace)::State, std::allocator<node::inspector::protocol::json::(anonymous namespace)::State>>::_Deque_impl_data", ptr %_M_impl4, i32 0, i32 3
  %_M_node = getelementptr inbounds %"struct.std::_Deque_iterator", ptr %_M_finish5, i32 0, i32 3
  %1 = load ptr, ptr %_M_node, align 8
  %add.ptr = getelementptr inbounds ptr, ptr %1, i64 -1
  call void @_ZNSt15_Deque_iteratorIN4node9inspector8protocol4json12_GLOBAL__N_15StateERS5_PS5_E11_M_set_nodeEPS7_(ptr noundef nonnull align 8 dereferenceable(32) %_M_finish3, ptr noundef %add.ptr) #13
  %_M_impl6 = getelementptr inbounds %"class.std::_Deque_base", ptr %this1, i32 0, i32 0
  %_M_finish7 = getelementptr inbounds %"struct.std::_Deque_base<node::inspector::protocol::json::(anonymous namespace)::State, std::allocator<node::inspector::protocol::json::(anonymous namespace)::State>>::_Deque_impl_data", ptr %_M_impl6, i32 0, i32 3
  %_M_last = getelementptr inbounds %"struct.std::_Deque_iterator", ptr %_M_finish7, i32 0, i32 2
  %2 = load ptr, ptr %_M_last, align 8
  %add.ptr8 = getelementptr inbounds %"class.node::inspector::protocol::json::(anonymous namespace)::State", ptr %2, i64 -1
  %_M_impl9 = getelementptr inbounds %"class.std::_Deque_base", ptr %this1, i32 0, i32 0
  %_M_finish10 = getelementptr inbounds %"struct.std::_Deque_base<node::inspector::protocol::json::(anonymous namespace)::State, std::allocator<node::inspector::protocol::json::(anonymous namespace)::State>>::_Deque_impl_data", ptr %_M_impl9, i32 0, i32 3
  %_M_cur = getelementptr inbounds %"struct.std::_Deque_iterator", ptr %_M_finish10, i32 0, i32 0
  store ptr %add.ptr8, ptr %_M_cur, align 8
  %call = call noundef nonnull align 1 dereferenceable(1) ptr @_ZNSt11_Deque_baseIN4node9inspector8protocol4json12_GLOBAL__N_15StateESaIS5_EE19_M_get_Tp_allocatorEv(ptr noundef nonnull align 8 dereferenceable(80) %this1) #13
  %_M_impl11 = getelementptr inbounds %"class.std::_Deque_base", ptr %this1, i32 0, i32 0
  %_M_finish12 = getelementptr inbounds %"struct.std::_Deque_base<node::inspector::protocol::json::(anonymous namespace)::State, std::allocator<node::inspector::protocol::json::(anonymous namespace)::State>>::_Deque_impl_data", ptr %_M_impl11, i32 0, i32 3
  %_M_cur13 = getelementptr inbounds %"struct.std::_Deque_iterator", ptr %_M_finish12, i32 0, i32 0
  %3 = load ptr, ptr %_M_cur13, align 8
  call void @_ZNSt16allocator_traitsISaIN4node9inspector8protocol4json12_GLOBAL__N_15StateEEE7destroyIS5_EEvRS6_PT_(ptr noundef nonnull align 1 dereferenceable(1) %call, ptr noundef %3) #13
  ret void
}

; Function Attrs: mustprogress nounwind uwtable
define internal void @_ZNSt16allocator_traitsISaIN4node9inspector8protocol4json12_GLOBAL__N_15StateEEE7destroyIS5_EEvRS6_PT_(ptr noundef nonnull align 1 dereferenceable(1) %__a, ptr noundef %__p) #0 align 2 {
entry:
  %__a.addr = alloca ptr, align 8
  %__p.addr = alloca ptr, align 8
  store ptr %__a, ptr %__a.addr, align 8
  store ptr %__p, ptr %__p.addr, align 8
  %0 = load ptr, ptr %__a.addr, align 8
  %1 = load ptr, ptr %__p.addr, align 8
  call void @_ZNSt15__new_allocatorIN4node9inspector8protocol4json12_GLOBAL__N_15StateEE7destroyIS5_EEvPT_(ptr noundef nonnull align 1 dereferenceable(1) %0, ptr noundef %1) #13
  ret void
}

; Function Attrs: mustprogress nounwind uwtable
define internal noundef nonnull align 1 dereferenceable(1) ptr @_ZNSt11_Deque_baseIN4node9inspector8protocol4json12_GLOBAL__N_15StateESaIS5_EE19_M_get_Tp_allocatorEv(ptr noundef nonnull align 8 dereferenceable(80) %this) #0 align 2 {
entry:
  %this.addr = alloca ptr, align 8
  store ptr %this, ptr %this.addr, align 8
  %this1 = load ptr, ptr %this.addr, align 8
  %_M_impl = getelementptr inbounds %"class.std::_Deque_base", ptr %this1, i32 0, i32 0
  ret ptr %_M_impl
}

; Function Attrs: mustprogress nounwind uwtable
define internal void @_ZNSt5dequeIN4node9inspector8protocol4json12_GLOBAL__N_15StateESaIS5_EE8pop_backEv(ptr noundef nonnull align 8 dereferenceable(80) %this) #0 align 2 {
entry:
  %this.addr = alloca ptr, align 8
  store ptr %this, ptr %this.addr, align 8
  %this1 = load ptr, ptr %this.addr, align 8
  %_M_impl = getelementptr inbounds %"class.std::_Deque_base", ptr %this1, i32 0, i32 0
  %_M_finish = getelementptr inbounds %"struct.std::_Deque_base<node::inspector::protocol::json::(anonymous namespace)::State, std::allocator<node::inspector::protocol::json::(anonymous namespace)::State>>::_Deque_impl_data", ptr %_M_impl, i32 0, i32 3
  %_M_cur = getelementptr inbounds %"struct.std::_Deque_iterator", ptr %_M_finish, i32 0, i32 0
  %0 = load ptr, ptr %_M_cur, align 8
  %_M_impl2 = getelementptr inbounds %"class.std::_Deque_base", ptr %this1, i32 0, i32 0
  %_M_finish3 = getelementptr inbounds %"struct.std::_Deque_base<node::inspector::protocol::json::(anonymous namespace)::State, std::allocator<node::inspector::protocol::json::(anonymous namespace)::State>>::_Deque_impl_data", ptr %_M_impl2, i32 0, i32 3
  %_M_first = getelementptr inbounds %"struct.std::_Deque_iterator", ptr %_M_finish3, i32 0, i32 1
  %1 = load ptr, ptr %_M_first, align 8
  %cmp = icmp ne ptr %0, %1
  br i1 %cmp, label %if.then, label %if.else

if.then:                                          ; preds = %entry
  %_M_impl4 = getelementptr inbounds %"class.std::_Deque_base", ptr %this1, i32 0, i32 0
  %_M_finish5 = getelementptr inbounds %"struct.std::_Deque_base<node::inspector::protocol::json::(anonymous namespace)::State, std::allocator<node::inspector::protocol::json::(anonymous namespace)::State>>::_Deque_impl_data", ptr %_M_impl4, i32 0, i32 3
  %_M_cur6 = getelementptr inbounds %"struct.std::_Deque_iterator", ptr %_M_finish5, i32 0, i32 0
  %2 = load ptr, ptr %_M_cur6, align 8
  %incdec.ptr = getelementptr inbounds %"class.node::inspector::protocol::json::(anonymous namespace)::State", ptr %2, i32 -1
  store ptr %incdec.ptr, ptr %_M_cur6, align 8
  %call = call noundef nonnull align 1 dereferenceable(1) ptr @_ZNSt11_Deque_baseIN4node9inspector8protocol4json12_GLOBAL__N_15StateESaIS5_EE19_M_get_Tp_allocatorEv(ptr noundef nonnull align 8 dereferenceable(80) %this1) #13
  %_M_impl7 = getelementptr inbounds %"class.std::_Deque_base", ptr %this1, i32 0, i32 0
  %_M_finish8 = getelementptr inbounds %"struct.std::_Deque_base<node::inspector::protocol::json::(anonymous namespace)::State, std::allocator<node::inspector::protocol::json::(anonymous namespace)::State>>::_Deque_impl_data", ptr %_M_impl7, i32 0, i32 3
  %_M_cur9 = getelementptr inbounds %"struct.std::_Deque_iterator", ptr %_M_finish8, i32 0, i32 0
  %3 = load ptr, ptr %_M_cur9, align 8
  call void @_ZNSt16allocator_traitsISaIN4node9inspector8protocol4json12_GLOBAL__N_15StateEEE7destroyIS5_EEvRS6_PT_(ptr noundef nonnull align 1 dereferenceable(1) %call, ptr noundef %3) #13
  br label %if.end

if.else:                                          ; preds = %entry
  call void @_ZNSt5dequeIN4node9inspector8protocol4json12_GLOBAL__N_15StateESaIS5_EE15_M_pop_back_auxEv(ptr noundef nonnull align 8 dereferenceable(80) %this1)
  br label %if.end

if.end:                                           ; preds = %if.else, %if.then
  ret void
}

; Function Attrs: mustprogress nounwind uwtable
define internal void @_ZN4node9inspector8protocol4json12_GLOBAL__N_111JSONEncoderINSt7__cxx1112basic_stringIcSt11char_traitsIcESaIcEEEE4EmitEc(ptr noundef nonnull align 8 dereferenceable(112) %this, i8 noundef signext %c) #0 align 2 {
entry:
  %this.addr = alloca ptr, align 8
  %c.addr = alloca i8, align 1
  store ptr %this, ptr %this.addr, align 8
  store i8 %c, ptr %c.addr, align 1
  %this1 = load ptr, ptr %this.addr, align 8
  %out_ = getelementptr inbounds %"class.node::inspector::protocol::json::(anonymous namespace)::JSONEncoder.193", ptr %this1, i32 0, i32 2
  %0 = load ptr, ptr %out_, align 8
  %1 = load i8, ptr %c.addr, align 1
  call void @_ZNSt7__cxx1112basic_stringIcSt11char_traitsIcESaIcEE9push_backEc(ptr noundef nonnull align 8 dereferenceable(32) %0, i8 noundef signext %1)
  ret void
}

; Function Attrs: mustprogress nounwind uwtable
define internal void @_ZNSt5stackIN4node9inspector8protocol4json12_GLOBAL__N_15StateESt5dequeIS5_SaIS5_EEE3popEv(ptr noundef nonnull align 8 dereferenceable(80) %this) #0 align 2 {
entry:
  %this.addr = alloca ptr, align 8
  store ptr %this, ptr %this.addr, align 8
  %this1 = load ptr, ptr %this.addr, align 8
  %c = getelementptr inbounds %"class.std::stack", ptr %this1, i32 0, i32 0
  call void @_ZNSt5dequeIN4node9inspector8protocol4json12_GLOBAL__N_15StateESaIS5_EE8pop_backEv(ptr noundef nonnull align 8 dereferenceable(80) %c) #13
  ret void
}

; Function Attrs: mustprogress nounwind uwtable
define linkonce_odr dso_local noundef zeroext i1 @_ZNK4node9inspector8protocol6Status2okEv(ptr noundef nonnull align 8 dereferenceable(16) %this) #0 comdat align 2 {
entry:
  %this.addr = alloca ptr, align 8
  store ptr %this, ptr %this.addr, align 8
  %this1 = load ptr, ptr %this.addr, align 8
  %error = getelementptr inbounds %"struct.node::inspector::protocol::Status", ptr %this1, i32 0, i32 0
  %0 = load i32, ptr %error, align 8
  %cmp = icmp eq i32 %0, 0
  ret i1 %cmp
}

; Function Attrs: mustprogress nounwind uwtable
define internal void @_ZN4node9inspector8protocol4json12_GLOBAL__N_111JSONEncoderINSt7__cxx1112basic_stringIcSt11char_traitsIcESaIcEEEE14HandleArrayEndEv(ptr noundef nonnull align 8 dereferenceable(112) %this) unnamed_addr #0 align 2 {
entry:
  %this.addr = alloca ptr, align 8
  store ptr %this, ptr %this.addr, align 8
  %this1 = load ptr, ptr %this.addr, align 8
  %status_ = getelementptr inbounds %"class.node::inspector::protocol::json::(anonymous namespace)::JSONEncoder.193", ptr %this1, i32 0, i32 3
  %0 = load ptr, ptr %status_, align 8
  %call = call noundef zeroext i1 @_ZNK4node9inspector8protocol6Status2okEv(ptr noundef nonnull align 8 dereferenceable(16) %0)
  br i1 %call, label %if.end, label %if.then

if.then:                                          ; preds = %entry
  br label %return

if.end:                                           ; preds = %entry
  %state_ = getelementptr inbounds %"class.node::inspector::protocol::json::(anonymous namespace)::JSONEncoder.193", ptr %this1, i32 0, i32 4
  call void @_ZNSt5stackIN4node9inspector8protocol4json12_GLOBAL__N_15StateESt5dequeIS5_SaIS5_EEE3popEv(ptr noundef nonnull align 8 dereferenceable(80) %state_)
  call void @_ZN4node9inspector8protocol4json12_GLOBAL__N_111JSONEncoderINSt7__cxx1112basic_stringIcSt11char_traitsIcESaIcEEEE4EmitEc(ptr noundef nonnull align 8 dereferenceable(112) %this1, i8 noundef signext 93)
  br label %return

return:                                           ; preds = %if.end, %if.then
  ret void
}