; Function Attrs: mustprogress nounwind uwtable
define internal void @_ZN4node9inspector8protocol4json12_GLOBAL__N_111JSONEncoderINSt7__cxx1112basic_stringIcSt11char_traitsIcESaIcEEEE14HandleArrayEndEv(ptr nocapture noundef nonnull align 8 dereferenceable(112) %this) unnamed_addr #1 align 2 {
entry:
  %status_ = getelementptr inbounds i8, ptr %this, i64 24
  %0 = load ptr, ptr %status_, align 8
  %1 = load i32, ptr %0, align 8
  %cmp.i = icmp eq i32 %1, 0
  br i1 %cmp.i, label %if.end, label %return

if.end:                                           ; preds = %entry
  %_M_finish.i.i = getelementptr inbounds i8, ptr %this, i64 80
  %2 = load ptr, ptr %_M_finish.i.i, align 8
  %_M_first.i.i = getelementptr inbounds i8, ptr %this, i64 88
  %3 = load ptr, ptr %_M_first.i.i, align 8
  %cmp.not.i.i = icmp eq ptr %2, %3
  br i1 %cmp.not.i.i, label %if.else.i.i, label %if.then.i.i

if.then.i.i:                                      ; preds = %if.end
  %incdec.ptr.i.i = getelementptr inbounds i8, ptr %2, i64 -8
  br label %_ZNSt5stackIN4node9inspector8protocol4json12_GLOBAL__N_15StateESt5dequeIS5_SaIS5_EEE3popEv.exit

if.else.i.i:                                      ; preds = %if.end
  tail call void @_ZdlPv(ptr noundef %2) #28
  %_M_node.i.i.i = getelementptr inbounds i8, ptr %this, i64 104
  %4 = load ptr, ptr %_M_node.i.i.i, align 8
  %add.ptr.i.i.i = getelementptr inbounds i8, ptr %4, i64 -8
  store ptr %add.ptr.i.i.i, ptr %_M_node.i.i.i, align 8
  %5 = load ptr, ptr %add.ptr.i.i.i, align 8
  store ptr %5, ptr %_M_first.i.i, align 8
  %add.ptr.i.i.i.i = getelementptr inbounds i8, ptr %5, i64 512
  %_M_last.i.i.i.i = getelementptr inbounds i8, ptr %this, i64 96
  store ptr %add.ptr.i.i.i.i, ptr %_M_last.i.i.i.i, align 8
  %add.ptr8.i.i.i = getelementptr inbounds i8, ptr %5, i64 504
  br label %_ZNSt5stackIN4node9inspector8protocol4json12_GLOBAL__N_15StateESt5dequeIS5_SaIS5_EEE3popEv.exit

_ZNSt5stackIN4node9inspector8protocol4json12_GLOBAL__N_15StateESt5dequeIS5_SaIS5_EEE3popEv.exit: ; preds = %if.then.i.i, %if.else.i.i
  %storemerge.i.i = phi ptr [ %incdec.ptr.i.i, %if.then.i.i ], [ %add.ptr8.i.i.i, %if.else.i.i ]
  store ptr %storemerge.i.i, ptr %_M_finish.i.i, align 8
  %6 = getelementptr inbounds i8, ptr %this, i64 16
  %this.val = load ptr, ptr %6, align 8
  tail call void @_ZNSt7__cxx1112basic_stringIcSt11char_traitsIcESaIcEE9push_backEc(ptr noundef nonnull align 8 dereferenceable(32) %this.val, i8 noundef signext 93) #27
  br label %return

return:                                           ; preds = %entry, %_ZNSt5stackIN4node9inspector8protocol4json12_GLOBAL__N_15StateESt5dequeIS5_SaIS5_EEE3popEv.exit
  ret void
}